; Function Attrs: mustprogress nounwind uwtable
define hidden void @_ZN19OpenColorIO_v2_4dev11GammaOpDataD0Ev(ptr noundef nonnull align 8 dereferenceable(272) %this) unnamed_addr #4 align 2 personality ptr @__gxx_personality_v0 {
entry:
  store ptr getelementptr inbounds ({ [15 x ptr] }, ptr @_ZTVN19OpenColorIO_v2_4dev11GammaOpDataE, i64 0, i32 0, i64 2), ptr %this, align 8
  %m_alphaParams.i = getelementptr inbounds i8, ptr %this, i64 248
  %0 = load ptr, ptr %m_alphaParams.i, align 8
  %tobool.not.i.i.i.i = icmp eq ptr %0, null
  br i1 %tobool.not.i.i.i.i, label %_ZNSt6vectorIdSaIdEED2Ev.exit.i, label %if.then.i.i.i.i

if.then.i.i.i.i:                                  ; preds = %entry
  tail call void @_ZdlPv(ptr noundef nonnull %0) #21
  br label %_ZNSt6vectorIdSaIdEED2Ev.exit.i

_ZNSt6vectorIdSaIdEED2Ev.exit.i:                  ; preds = %if.then.i.i.i.i, %entry
  %m_blueParams.i = getelementptr inbounds i8, ptr %this, i64 224
  %1 = load ptr, ptr %m_blueParams.i, align 8
  %tobool.not.i.i.i1.i = icmp eq ptr %1, null
  br i1 %tobool.not.i.i.i1.i, label %_ZNSt6vectorIdSaIdEED2Ev.exit3.i, label %if.then.i.i.i2.i

if.then.i.i.i2.i:                                 ; preds = %_ZNSt6vectorIdSaIdEED2Ev.exit.i
  tail call void @_ZdlPv(ptr noundef nonnull %1) #21
  br label %_ZNSt6vectorIdSaIdEED2Ev.exit3.i

_ZNSt6vectorIdSaIdEED2Ev.exit3.i:                 ; preds = %if.then.i.i.i2.i, %_ZNSt6vectorIdSaIdEED2Ev.exit.i
  %m_greenParams.i = getelementptr inbounds i8, ptr %this, i64 200
  %2 = load ptr, ptr %m_greenParams.i, align 8
  %tobool.not.i.i.i4.i = icmp eq ptr %2, null
  br i1 %tobool.not.i.i.i4.i, label %_ZNSt6vectorIdSaIdEED2Ev.exit6.i, label %if.then.i.i.i5.i

if.then.i.i.i5.i:                                 ; preds = %_ZNSt6vectorIdSaIdEED2Ev.exit3.i
  tail call void @_ZdlPv(ptr noundef nonnull %2) #21
  br label %_ZNSt6vectorIdSaIdEED2Ev.exit6.i

_ZNSt6vectorIdSaIdEED2Ev.exit6.i:                 ; preds = %if.then.i.i.i5.i, %_ZNSt6vectorIdSaIdEED2Ev.exit3.i
  %m_redParams.i = getelementptr inbounds i8, ptr %this, i64 176
  %3 = load ptr, ptr %m_redParams.i, align 8
  %tobool.not.i.i.i7.i = icmp eq ptr %3, null
  br i1 %tobool.not.i.i.i7.i, label %_ZN19OpenColorIO_v2_4dev11GammaOpDataD2Ev.exit, label %if.then.i.i.i8.i

if.then.i.i.i8.i:                                 ; preds = %_ZNSt6vectorIdSaIdEED2Ev.exit6.i
  tail call void @_ZdlPv(ptr noundef nonnull %3) #21
  br label %_ZN19OpenColorIO_v2_4dev11GammaOpDataD2Ev.exit

_ZN19OpenColorIO_v2_4dev11GammaOpDataD2Ev.exit:   ; preds = %_ZNSt6vectorIdSaIdEED2Ev.exit6.i, %if.then.i.i.i8.i
  store ptr getelementptr inbounds ({ [13 x ptr] }, ptr @_ZTVN19OpenColorIO_v2_4dev6OpDataE, i64 0, i32 0, i64 2), ptr %this, align 8
  %m_metadata.i.i = getelementptr inbounds i8, ptr %this, i64 48
  tail call void @_ZN19OpenColorIO_v2_4dev18FormatMetadataImplD1Ev(ptr noundef nonnull align 8 dereferenceable(120) %m_metadata.i.i) #18
  tail call void @_ZdlPv(ptr noundef nonnull %this) #21
  ret void
}